; Function Attrs: mustprogress nofree norecurse nosync nounwind willreturn memory(read, inaccessiblemem: none) uwtable
define hidden noundef zeroext i1 @_ZNK6params8containsERK6symbol(ptr nocapture noundef nonnull readonly align 8 dereferenceable(12) %this, ptr nocapture noundef nonnull readonly align 8 dereferenceable(8) %k) local_unnamed_addr #7 align 2 {
entry:
  %0 = load ptr, ptr %this, align 8
  %cmp.i.i = icmp eq ptr %0, null
  br i1 %cmp.i.i, label %return, label %_ZNK6params5emptyEv.exit

_ZNK6params5emptyEv.exit:                         ; preds = %entry
  %arrayidx.i.i = getelementptr inbounds i8, ptr %0, i64 -4
  %1 = load i32, ptr %arrayidx.i.i, align 4
  %cmp3.i.i = icmp eq i32 %1, 0
  br i1 %cmp3.i.i, label %return, label %for.body.lr.ph

for.body.lr.ph:                                   ; preds = %_ZNK6params5emptyEv.exit
  %2 = zext i32 %1 to i64
  %add.ptr.i = getelementptr inbounds %"struct.std::pair", ptr %0, i64 %2
  %3 = load ptr, ptr %k, align 8
  br label %for.body

for.body:                                         ; preds = %for.body, %for.body.lr.ph
  %it.06 = phi ptr [ %0, %for.body.lr.ph ], [ %incdec.ptr, %for.body ]
  %4 = load ptr, ptr %it.06, align 8
  %cmp.i = icmp eq ptr %4, %3
  %incdec.ptr = getelementptr inbounds i8, ptr %it.06, i64 24
  %cmp.not = icmp eq ptr %incdec.ptr, %add.ptr.i
  %or.cond = select i1 %cmp.i, i1 true, i1 %cmp.not
  br i1 %or.cond, label %return, label %for.body, !llvm.loop !36

return:                                           ; preds = %for.body, %entry, %_ZNK6params5emptyEv.exit
  %retval.0 = phi i1 [ false, %_ZNK6params5emptyEv.exit ], [ false, %entry ], [ %cmp.i, %for.body ]
  ret i1 %retval.0
}